target datalayout = "e-m:e-p270:32:32-p271:32:32-p272:64:64-i64:64-i128:128-f80:128-n8:16:32:64-S128"
target triple = "x86_64-pc-linux-gnu"

%struct.WebPPicture = type { i32, i32, i32, i32, ptr, ptr, ptr, i32, i32, ptr, i32, [2 x i32], ptr, i32, [3 x i32], ptr, ptr, i32, ptr, ptr, i32, ptr, ptr, [3 x i32], ptr, ptr, [8 x i32], ptr, ptr, [2 x ptr] }
%struct.WebPAuxStats = type { i32, [5 x float], [3 x i32], [2 x i32], [3 x [4 x i32]], [4 x i32], [4 x i32], [4 x i32], i32, i32, i32, i32, i32, i32, i32, i32, i32, i32, i32, [1 x i32] }

@stderr = external global ptr, align 8
@.str.198 = private unnamed_addr constant [11 x i8] c"%7d %2.2f\0A\00", align 1
@.str.199 = private unnamed_addr constant [15 x i8] c"File:      %s\0A\00", align 1
@.str.200 = private unnamed_addr constant [20 x i8] c"Dimension: %d x %d\0A\00", align 1
@.str.201 = private unnamed_addr constant [32 x i8] c"Output:    %d bytes (%.2f bpp)\0A\00", align 1
@.str.202 = private unnamed_addr constant [5 x i8] c"ARGB\00", align 1

; Function Attrs: nounwind uwtable
define internal void @PrintExtraInfoLossless(ptr noundef %0, i32 noundef %1, ptr noundef %2) #0 {
  %4 = alloca ptr, align 8
  %5 = alloca i32, align 4
  %6 = alloca ptr, align 8
  %7 = alloca ptr, align 8
  store ptr %0, ptr %4, align 8
  store i32 %1, ptr %5, align 4
  store ptr %2, ptr %6, align 8
  %8 = load ptr, ptr %4, align 8
  %9 = getelementptr inbounds %struct.WebPPicture, ptr %8, i32 0, i32 19
  %10 = load ptr, ptr %9, align 8
  store ptr %10, ptr %7, align 8
  %11 = load i32, ptr %5, align 4
  %12 = icmp ne i32 %11, 0
  br i1 %12, label %13, label %24

13:                                               ; preds = %3
  %14 = load ptr, ptr @stderr, align 8
  %15 = load ptr, ptr %7, align 8
  %16 = getelementptr inbounds %struct.WebPAuxStats, ptr %15, i32 0, i32 0
  %17 = load i32, ptr %16, align 4
  %18 = load ptr, ptr %7, align 8
  %19 = getelementptr inbounds %struct.WebPAuxStats, ptr %18, i32 0, i32 1
  %20 = getelementptr inbounds [5 x float], ptr %19, i64 0, i64 3
  %21 = load float, ptr %20, align 4
  %22 = fpext float %21 to double
  %23 = call i32 (ptr, ptr, ...) @fprintf(ptr noundef %14, ptr noundef @.str.198, i32 noundef %17, double noundef %22) #6
  br label %58

24:                                               ; preds = %3
  %25 = load ptr, ptr @stderr, align 8
  %26 = load ptr, ptr %6, align 8
  %27 = call i32 (ptr, ptr, ...) @fprintf(ptr noundef %25, ptr noundef @.str.199, ptr noundef %26) #6
  %28 = load ptr, ptr @stderr, align 8
  %29 = load ptr, ptr %4, align 8
  %30 = getelementptr inbounds %struct.WebPPicture, ptr %29, i32 0, i32 2
  %31 = load i32, ptr %30, align 8
  %32 = load ptr, ptr %4, align 8
  %33 = getelementptr inbounds %struct.WebPPicture, ptr %32, i32 0, i32 3
  %34 = load i32, ptr %33, align 4
  %35 = call i32 (ptr, ptr, ...) @fprintf(ptr noundef %28, ptr noundef @.str.200, i32 noundef %31, i32 noundef %34) #6
  %36 = load ptr, ptr @stderr, align 8
  %37 = load ptr, ptr %7, align 8
  %38 = getelementptr inbounds %struct.WebPAuxStats, ptr %37, i32 0, i32 0
  %39 = load i32, ptr %38, align 4
  %40 = load ptr, ptr %7, align 8
  %41 = getelementptr inbounds %struct.WebPAuxStats, ptr %40, i32 0, i32 0
  %42 = load i32, ptr %41, align 4
  %43 = sitofp i32 %42 to float
  %44 = fmul float 8.000000e+00, %43
  %45 = load ptr, ptr %4, align 8
  %46 = getelementptr inbounds %struct.WebPPicture, ptr %45, i32 0, i32 2
  %47 = load i32, ptr %46, align 8
  %48 = sitofp i32 %47 to float
  %49 = fdiv float %44, %48
  %50 = load ptr, ptr %4, align 8
  %51 = getelementptr inbounds %struct.WebPPicture, ptr %50, i32 0, i32 3
  %52 = load i32, ptr %51, align 4
  %53 = sitofp i32 %52 to float
  %54 = fdiv float %49, %53
  %55 = fpext float %54 to double
  %56 = call i32 (ptr, ptr, ...) @fprintf(ptr noundef %36, ptr noundef @.str.201, i32 noundef %39, double noundef %55) #6
  %57 = load ptr, ptr %7, align 8
  call void @PrintFullLosslessInfo(ptr noundef %57, ptr noundef @.str.202)
  br label %58

58:                                               ; preds = %24, %13
  ret void
}