; Function Attrs: nofree nounwind uwtable
define internal fastcc void @PrintExtraInfoLossless(ptr nocapture noundef readonly %0, i32 noundef %1, ptr noundef %2) unnamed_addr #3 {
  %4 = getelementptr inbounds i8, ptr %0, i64 128
  %5 = load ptr, ptr %4, align 8
  %.not = icmp eq i32 %1, 0
  %6 = load ptr, ptr @stderr, align 8
  br i1 %.not, label %13, label %7

7:                                                ; preds = %3
  %8 = load i32, ptr %5, align 4
  %9 = getelementptr inbounds i8, ptr %5, i64 16
  %10 = load float, ptr %9, align 4
  %11 = fpext float %10 to double
  %12 = tail call i32 (ptr, ptr, ...) @fprintf(ptr noundef %6, ptr noundef nonnull @.str.198, i32 noundef %8, double noundef %11) #14
  br label %33

13:                                               ; preds = %3
  %14 = tail call i32 (ptr, ptr, ...) @fprintf(ptr noundef %6, ptr noundef nonnull @.str.199, ptr noundef %2) #14
  %15 = load ptr, ptr @stderr, align 8
  %16 = getelementptr inbounds i8, ptr %0, i64 8
  %17 = load i32, ptr %16, align 8
  %18 = getelementptr inbounds i8, ptr %0, i64 12
  %19 = load i32, ptr %18, align 4
  %20 = tail call i32 (ptr, ptr, ...) @fprintf(ptr noundef %15, ptr noundef nonnull @.str.200, i32 noundef %17, i32 noundef %19) #14
  %21 = load ptr, ptr @stderr, align 8
  %22 = load i32, ptr %5, align 4
  %23 = sitofp i32 %22 to float
  %24 = fmul float %23, 8.000000e+00
  %25 = load i32, ptr %16, align 8
  %26 = sitofp i32 %25 to float
  %27 = fdiv float %24, %26
  %28 = load i32, ptr %18, align 4
  %29 = sitofp i32 %28 to float
  %30 = fdiv float %27, %29
  %31 = fpext float %30 to double
  %32 = tail call i32 (ptr, ptr, ...) @fprintf(ptr noundef %21, ptr noundef nonnull @.str.201, i32 noundef %22, double noundef %31) #14
  tail call fastcc void @PrintFullLosslessInfo(ptr noundef nonnull %5, ptr noundef nonnull @.str.202)
  br label %33

33:                                               ; preds = %13, %7
  ret void
}